; Function Attrs: mustprogress nounwind uwtable
define hidden { ptr, i32 } @_ZN4llvm16DAGTypeLegalizer18PromoteIntOp_BR_CCEPNS_6SDNodeEj(ptr noundef nonnull align 8 dereferenceable(2512) %0, ptr noundef %1, i32 %2) local_unnamed_addr #0 align 2 {
  %4 = alloca %"class.llvm::SDValue", align 8
  %5 = alloca %"class.llvm::SDValue", align 8
  %6 = getelementptr inbounds nuw i8, ptr %1, i64 40
  %7 = load ptr, ptr %6, align 8
  %8 = getelementptr inbounds i8, ptr %7, i64 80
  call void @llvm.memcpy.p0.p0.i64(ptr noundef nonnull align 8 dereferenceable(16) %4, ptr noundef nonnull align 8 dereferenceable(16) %8, i64 16, i1 false)
  %9 = getelementptr inbounds i8, ptr %7, i64 120
  call void @llvm.memcpy.p0.p0.i64(ptr noundef nonnull align 8 dereferenceable(16) %5, ptr noundef nonnull align 8 dereferenceable(16) %9, i64 16, i1 false)
  %10 = getelementptr inbounds i8, ptr %7, i64 40
  %11 = load ptr, ptr %10, align 8
  %12 = getelementptr inbounds nuw i8, ptr %11, i64 88
  %13 = load i32, ptr %12, align 8
  %14 = add i32 %13, -18
  %switch.selectcmp.i.i = icmp ult i32 %14, 4
  br i1 %switch.selectcmp.i.i, label %15, label %18

15:                                               ; preds = %3
  %.sroa.09.0.copyload.i = load ptr, ptr %4, align 8
  %.sroa.210.0..sroa_idx.i = getelementptr inbounds i8, ptr %4, i64 8
  %.sroa.210.0.copyload.i = load i32, ptr %.sroa.210.0..sroa_idx.i, align 8
  %16 = tail call { ptr, i32 } @_ZN4llvm16DAGTypeLegalizer19SExtPromotedIntegerENS_7SDValueE(ptr noundef nonnull align 8 dereferenceable(2512) %0, ptr %.sroa.09.0.copyload.i, i32 %.sroa.210.0.copyload.i)
  %.fca.0.extract5.i = extractvalue { ptr, i32 } %16, 0
  %.fca.1.extract6.i = extractvalue { ptr, i32 } %16, 1
  store ptr %.fca.0.extract5.i, ptr %4, align 8
  store i32 %.fca.1.extract6.i, ptr %.sroa.210.0..sroa_idx.i, align 8
  %.sroa.01.0.copyload.i = load ptr, ptr %5, align 8
  %.sroa.22.0..sroa_idx.i = getelementptr inbounds i8, ptr %5, i64 8
  %.sroa.22.0.copyload.i = load i32, ptr %.sroa.22.0..sroa_idx.i, align 8
  %17 = tail call { ptr, i32 } @_ZN4llvm16DAGTypeLegalizer19SExtPromotedIntegerENS_7SDValueE(ptr noundef nonnull align 8 dereferenceable(2512) %0, ptr %.sroa.01.0.copyload.i, i32 %.sroa.22.0.copyload.i)
  %.fca.0.extract.i = extractvalue { ptr, i32 } %17, 0
  %.fca.1.extract.i = extractvalue { ptr, i32 } %17, 1
  store ptr %.fca.0.extract.i, ptr %5, align 8
  store i32 %.fca.1.extract.i, ptr %.sroa.22.0..sroa_idx.i, align 8
  br label %_ZN4llvm16DAGTypeLegalizer20PromoteSetCCOperandsERNS_7SDValueES2_NS_3ISD8CondCodeE.exit

18:                                               ; preds = %3
  call void @_ZN4llvm16DAGTypeLegalizer26SExtOrZExtPromotedOperandsERNS_7SDValueES2_(ptr noundef nonnull align 8 dereferenceable(2512) %0, ptr noundef nonnull align 8 dereferenceable(12) %4, ptr noundef nonnull align 8 dereferenceable(12) %5)
  br label %_ZN4llvm16DAGTypeLegalizer20PromoteSetCCOperandsERNS_7SDValueES2_NS_3ISD8CondCodeE.exit

_ZN4llvm16DAGTypeLegalizer20PromoteSetCCOperandsERNS_7SDValueES2_NS_3ISD8CondCodeE.exit: ; preds = %15, %18
  %19 = getelementptr inbounds nuw i8, ptr %0, i64 8
  %20 = load ptr, ptr %19, align 8
  %21 = load ptr, ptr %6, align 8
  %.sroa.01.0.copyload = load ptr, ptr %21, align 8
  %.sroa.22.0..sroa_idx = getelementptr inbounds i8, ptr %21, i64 8
  %.sroa.22.0.copyload = load i32, ptr %.sroa.22.0..sroa_idx, align 8
  %22 = getelementptr inbounds i8, ptr %21, i64 40
  %.sroa.0.0.copyload = load ptr, ptr %22, align 8
  %.sroa.2.0..sroa_idx = getelementptr inbounds i8, ptr %21, i64 48
  %.sroa.2.0.copyload = load i32, ptr %.sroa.2.0..sroa_idx, align 8
  %23 = getelementptr inbounds i8, ptr %21, i64 160
  %24 = tail call noundef ptr @_ZN4llvm12SelectionDAG18UpdateNodeOperandsEPNS_6SDNodeENS_7SDValueES3_S3_S3_S3_(ptr noundef nonnull align 8 dereferenceable(904) %20, ptr noundef nonnull %1, ptr %.sroa.01.0.copyload, i32 %.sroa.22.0.copyload, ptr %.sroa.0.0.copyload, i32 %.sroa.2.0.copyload, ptr noundef nonnull byval(%"class.llvm::SDValue") align 8 %4, ptr noundef nonnull byval(%"class.llvm::SDValue") align 8 %5, ptr noundef nonnull byval(%"class.llvm::SDValue") align 8 %23) #17
  %.fca.0.insert = insertvalue { ptr, i32 } poison, ptr %24, 0
  %.fca.1.insert = insertvalue { ptr, i32 } %.fca.0.insert, i32 0, 1
  ret { ptr, i32 } %.fca.1.insert
}